target datalayout = "e-m:e-p270:32:32-p271:32:32-p272:64:64-i64:64-i128:128-f80:128-n8:16:32:64-S128"
target triple = "x86_64-pc-linux-gnu"

%struct.sharkd_conv_tap_data = type { ptr, %struct._conversation_hash_t, i8, i8 }
%struct._conversation_hash_t = type { ptr, ptr, ptr, i32 }

@.str.209 = private unnamed_addr constant [6 x i8] c"conv:\00", align 1
@.str.210 = private unnamed_addr constant [7 x i8] c"endpt:\00", align 1

; Function Attrs: null_pointer_is_valid sspstrong uwtable
define internal void @sharkd_session_free_tap_conv_cb(ptr noundef %0) #0 {
  %2 = alloca ptr, align 8
  %3 = alloca ptr, align 8
  %4 = alloca ptr, align 8
  store ptr %0, ptr %2, align 8
  call void @llvm.lifetime.start.p0(i64 8, ptr %3) #21
  %5 = load ptr, ptr %2, align 8
  store ptr %5, ptr %3, align 8
  call void @llvm.lifetime.start.p0(i64 8, ptr %4) #21
  %6 = load ptr, ptr %3, align 8
  %7 = getelementptr inbounds nuw %struct._conversation_hash_t, ptr %6, i32 0, i32 2
  %8 = load ptr, ptr %7, align 8
  store ptr %8, ptr %4, align 8
  %9 = load ptr, ptr %4, align 8
  %10 = getelementptr inbounds nuw %struct.sharkd_conv_tap_data, ptr %9, i32 0, i32 0
  %11 = load ptr, ptr %10, align 8
  %12 = call i32 @strncmp(ptr noundef %11, ptr noundef @.str.209, i64 noundef 5) #22
  %13 = icmp ne i32 %12, 0
  br i1 %13, label %16, label %14

14:                                               ; preds = %1
  %15 = load ptr, ptr %3, align 8
  call void @reset_conversation_table_data(ptr noundef %15)
  br label %25

16:                                               ; preds = %1
  %17 = load ptr, ptr %4, align 8
  %18 = getelementptr inbounds nuw %struct.sharkd_conv_tap_data, ptr %17, i32 0, i32 0
  %19 = load ptr, ptr %18, align 8
  %20 = call i32 @strncmp(ptr noundef %19, ptr noundef @.str.210, i64 noundef 6) #22
  %21 = icmp ne i32 %20, 0
  br i1 %21, label %24, label %22

22:                                               ; preds = %16
  %23 = load ptr, ptr %3, align 8
  call void @reset_endpoint_table_data(ptr noundef %23)
  br label %24

24:                                               ; preds = %22, %16
  br label %25

25:                                               ; preds = %24, %14
  %26 = load ptr, ptr %4, align 8
  call void @g_free(ptr noundef %26)
  call void @llvm.lifetime.end.p0(i64 8, ptr %4) #21
  call void @llvm.lifetime.end.p0(i64 8, ptr %3) #21
  ret void
}