; Function Attrs: null_pointer_is_valid sspstrong uwtable
define internal void @sharkd_session_free_tap_conv_cb(ptr noundef %0) #0 {
  %2 = getelementptr inbounds nuw i8, ptr %0, i64 16
  %3 = load ptr, ptr %2, align 8
  %4 = load ptr, ptr %3, align 8
  %5 = tail call i32 @strncmp(ptr noundef %4, ptr noundef nonnull dereferenceable(6) @.str.209, i64 noundef 5) #18
  %.not = icmp eq i32 %5, 0
  br i1 %.not, label %6, label %7

6:                                                ; preds = %1
  tail call void @reset_conversation_table_data(ptr noundef %0)
  br label %10

7:                                                ; preds = %1
  %8 = tail call i32 @strncmp(ptr noundef %4, ptr noundef nonnull dereferenceable(7) @.str.210, i64 noundef 6) #18
  %.not7 = icmp eq i32 %8, 0
  br i1 %.not7, label %9, label %10

9:                                                ; preds = %7
  tail call void @reset_endpoint_table_data(ptr noundef %0)
  br label %10

10:                                               ; preds = %7, %9, %6
  tail call void @g_free(ptr noundef %3)
  ret void
}